target datalayout = "e-m:e-p270:32:32-p271:32:32-p272:64:64-i64:64-i128:128-f80:128-n8:16:32:64-S128"
target triple = "x86_64-pc-linux-gnu"

%struct.Qureg = type { i32, i32, i32, i64, i64, i32, i32, %struct.ComplexArray, %struct.ComplexArray, %struct.ComplexArray, ptr, ptr, ptr, ptr, ptr, ptr }
%struct.ComplexArray = type { ptr, ptr }

@__func__.applyParamNamedPhaseFuncOverrides = private unnamed_addr constant [34 x i8] c"applyParamNamedPhaseFuncOverrides\00", align 1

; Function Attrs: nounwind uwtable
define void @applyParamNamedPhaseFuncOverrides(ptr noundef byval(%struct.Qureg) align 8 %0, ptr noundef %1, ptr noundef %2, i32 noundef %3, i32 noundef %4, i32 noundef %5, ptr noundef %6, i32 noundef %7, ptr noundef %8, ptr noundef %9, i32 noundef %10) #0 {
  %12 = alloca ptr, align 8
  %13 = alloca ptr, align 8
  %14 = alloca i32, align 4
  %15 = alloca i32, align 4
  %16 = alloca i32, align 4
  %17 = alloca ptr, align 8
  %18 = alloca i32, align 4
  %19 = alloca ptr, align 8
  %20 = alloca ptr, align 8
  %21 = alloca i32, align 4
  %22 = alloca i32, align 4
  store ptr %1, ptr %12, align 8, !tbaa !27
  store ptr %2, ptr %13, align 8, !tbaa !27
  store i32 %3, ptr %14, align 4, !tbaa !4
  store i32 %4, ptr %15, align 4, !tbaa !4
  store i32 %5, ptr %16, align 4, !tbaa !4
  store ptr %6, ptr %17, align 8, !tbaa !23
  store i32 %7, ptr %18, align 4, !tbaa !4
  store ptr %8, ptr %19, align 8, !tbaa !30
  store ptr %9, ptr %20, align 8, !tbaa !23
  store i32 %10, ptr %21, align 4, !tbaa !4
  %23 = load ptr, ptr %12, align 8, !tbaa !27
  %24 = load ptr, ptr %13, align 8, !tbaa !27
  %25 = load i32, ptr %14, align 4, !tbaa !4
  call void @validateQubitSubregs(ptr noundef byval(%struct.Qureg) align 8 %0, ptr noundef %23, ptr noundef %24, i32 noundef %25, ptr noundef @__func__.applyParamNamedPhaseFuncOverrides)
  %26 = load ptr, ptr %13, align 8, !tbaa !27
  %27 = load i32, ptr %14, align 4, !tbaa !4
  %28 = load i32, ptr %15, align 4, !tbaa !4
  call void @validateMultiRegBitEncoding(ptr noundef %26, i32 noundef %27, i32 noundef %28, ptr noundef @__func__.applyParamNamedPhaseFuncOverrides)
  %29 = load i32, ptr %16, align 4, !tbaa !4
  %30 = load i32, ptr %14, align 4, !tbaa !4
  %31 = load i32, ptr %18, align 4, !tbaa !4
  call void @validatePhaseFuncName(i32 noundef %29, i32 noundef %30, i32 noundef %31, ptr noundef @__func__.applyParamNamedPhaseFuncOverrides)
  %32 = load ptr, ptr %13, align 8, !tbaa !27
  %33 = load i32, ptr %14, align 4, !tbaa !4
  %34 = load i32, ptr %15, align 4, !tbaa !4
  %35 = load ptr, ptr %19, align 8, !tbaa !30
  %36 = load i32, ptr %21, align 4, !tbaa !4
  call void @validateMultiVarPhaseFuncOverrides(ptr noundef %32, i32 noundef %33, i32 noundef %34, ptr noundef %35, i32 noundef %36, ptr noundef @__func__.applyParamNamedPhaseFuncOverrides)
  call void @llvm.lifetime.start.p0(i64 4, ptr %22) #7
  store i32 0, ptr %22, align 4, !tbaa !4
  %37 = load ptr, ptr %12, align 8, !tbaa !27
  %38 = load ptr, ptr %13, align 8, !tbaa !27
  %39 = load i32, ptr %14, align 4, !tbaa !4
  %40 = load i32, ptr %15, align 4, !tbaa !4
  %41 = load i32, ptr %16, align 4, !tbaa !4
  %42 = load ptr, ptr %17, align 8, !tbaa !23
  %43 = load i32, ptr %18, align 4, !tbaa !4
  %44 = load ptr, ptr %19, align 8, !tbaa !30
  %45 = load ptr, ptr %20, align 8, !tbaa !23
  %46 = load i32, ptr %21, align 4, !tbaa !4
  %47 = load i32, ptr %22, align 4, !tbaa !4
  call void @statevec_applyParamNamedPhaseFuncOverrides(ptr noundef byval(%struct.Qureg) align 8 %0, ptr noundef %37, ptr noundef %38, i32 noundef %39, i32 noundef %40, i32 noundef %41, ptr noundef %42, i32 noundef %43, ptr noundef %44, ptr noundef %45, i32 noundef %46, i32 noundef %47)
  %48 = getelementptr inbounds nuw %struct.Qureg, ptr %0, i32 0, i32 0
  %49 = load i32, ptr %48, align 8, !tbaa !13
  %50 = icmp ne i32 %49, 0
  br i1 %50, label %51, label %74

51:                                               ; preds = %11
  store i32 1, ptr %22, align 4, !tbaa !4
  %52 = load ptr, ptr %12, align 8, !tbaa !27
  %53 = load ptr, ptr %13, align 8, !tbaa !27
  %54 = load i32, ptr %14, align 4, !tbaa !4
  %55 = getelementptr inbounds nuw %struct.Qureg, ptr %0, i32 0, i32 1
  %56 = load i32, ptr %55, align 4, !tbaa !18
  call void @shiftSubregIndices(ptr noundef %52, ptr noundef %53, i32 noundef %54, i32 noundef %56)
  %57 = load ptr, ptr %12, align 8, !tbaa !27
  %58 = load ptr, ptr %13, align 8, !tbaa !27
  %59 = load i32, ptr %14, align 4, !tbaa !4
  %60 = load i32, ptr %15, align 4, !tbaa !4
  %61 = load i32, ptr %16, align 4, !tbaa !4
  %62 = load ptr, ptr %17, align 8, !tbaa !23
  %63 = load i32, ptr %18, align 4, !tbaa !4
  %64 = load ptr, ptr %19, align 8, !tbaa !30
  %65 = load ptr, ptr %20, align 8, !tbaa !23
  %66 = load i32, ptr %21, align 4, !tbaa !4
  %67 = load i32, ptr %22, align 4, !tbaa !4
  call void @statevec_applyParamNamedPhaseFuncOverrides(ptr noundef byval(%struct.Qureg) align 8 %0, ptr noundef %57, ptr noundef %58, i32 noundef %59, i32 noundef %60, i32 noundef %61, ptr noundef %62, i32 noundef %63, ptr noundef %64, ptr noundef %65, i32 noundef %66, i32 noundef %67)
  %68 = load ptr, ptr %12, align 8, !tbaa !27
  %69 = load ptr, ptr %13, align 8, !tbaa !27
  %70 = load i32, ptr %14, align 4, !tbaa !4
  %71 = getelementptr inbounds nuw %struct.Qureg, ptr %0, i32 0, i32 1
  %72 = load i32, ptr %71, align 4, !tbaa !18
  %73 = sub nsw i32 0, %72
  call void @shiftSubregIndices(ptr noundef %68, ptr noundef %69, i32 noundef %70, i32 noundef %73)
  br label %74

74:                                               ; preds = %51, %11
  %75 = load ptr, ptr %12, align 8, !tbaa !27
  %76 = load ptr, ptr %13, align 8, !tbaa !27
  %77 = load i32, ptr %14, align 4, !tbaa !4
  %78 = load i32, ptr %15, align 4, !tbaa !4
  %79 = load i32, ptr %16, align 4, !tbaa !4
  %80 = load ptr, ptr %17, align 8, !tbaa !23
  %81 = load i32, ptr %18, align 4, !tbaa !4
  %82 = load ptr, ptr %19, align 8, !tbaa !30
  %83 = load ptr, ptr %20, align 8, !tbaa !23
  %84 = load i32, ptr %21, align 4, !tbaa !4
  call void @qasm_recordNamedPhaseFunc(ptr noundef byval(%struct.Qureg) align 8 %0, ptr noundef %75, ptr noundef %76, i32 noundef %77, i32 noundef %78, i32 noundef %79, ptr noundef %80, i32 noundef %81, ptr noundef %82, ptr noundef %83, i32 noundef %84)
  call void @llvm.lifetime.end.p0(i64 4, ptr %22) #7
  ret void
}