; Function Attrs: nounwind uwtable
define void @applyParamNamedPhaseFuncOverrides(ptr noundef readonly byval(%struct.Qureg) align 8 captures(none) %0, ptr noundef %1, ptr noundef %2, i32 noundef %3, i32 noundef %4, i32 noundef %5, ptr noundef %6, i32 noundef %7, ptr noundef %8, ptr noundef %9, i32 noundef %10) local_unnamed_addr #0 {
  tail call void @validateQubitSubregs(ptr noundef nonnull byval(%struct.Qureg) align 8 %0, ptr noundef %1, ptr noundef %2, i32 noundef %3, ptr noundef nonnull @__func__.applyParamNamedPhaseFuncOverrides) #17
  tail call void @validateMultiRegBitEncoding(ptr noundef %2, i32 noundef %3, i32 noundef %4, ptr noundef nonnull @__func__.applyParamNamedPhaseFuncOverrides) #17
  tail call void @validatePhaseFuncName(i32 noundef %5, i32 noundef %3, i32 noundef %7, ptr noundef nonnull @__func__.applyParamNamedPhaseFuncOverrides) #17
  tail call void @validateMultiVarPhaseFuncOverrides(ptr noundef %2, i32 noundef %3, i32 noundef %4, ptr noundef %8, i32 noundef %10, ptr noundef nonnull @__func__.applyParamNamedPhaseFuncOverrides) #17
  tail call void @statevec_applyParamNamedPhaseFuncOverrides(ptr noundef nonnull byval(%struct.Qureg) align 8 %0, ptr noundef %1, ptr noundef %2, i32 noundef %3, i32 noundef %4, i32 noundef %5, ptr noundef %6, i32 noundef %7, ptr noundef %8, ptr noundef %9, i32 noundef %10, i32 noundef 0) #17
  %12 = load i32, ptr %0, align 8, !tbaa !12
  %.not = icmp eq i32 %12, 0
  br i1 %.not, label %17, label %13

13:                                               ; preds = %11
  %14 = getelementptr inbounds nuw i8, ptr %0, i64 4
  %15 = load i32, ptr %14, align 4, !tbaa !17
  tail call void @shiftSubregIndices(ptr noundef %1, ptr noundef %2, i32 noundef %3, i32 noundef %15) #17
  tail call void @statevec_applyParamNamedPhaseFuncOverrides(ptr noundef nonnull byval(%struct.Qureg) align 8 %0, ptr noundef %1, ptr noundef %2, i32 noundef %3, i32 noundef %4, i32 noundef %5, ptr noundef %6, i32 noundef %7, ptr noundef %8, ptr noundef %9, i32 noundef %10, i32 noundef 1) #17
  %16 = sub nsw i32 0, %15
  tail call void @shiftSubregIndices(ptr noundef %1, ptr noundef %2, i32 noundef %3, i32 noundef %16) #17
  br label %17

17:                                               ; preds = %13, %11
  tail call void @qasm_recordNamedPhaseFunc(ptr noundef nonnull byval(%struct.Qureg) align 8 %0, ptr noundef %1, ptr noundef %2, i32 noundef %3, i32 noundef %4, i32 noundef %5, ptr noundef %6, i32 noundef %7, ptr noundef %8, ptr noundef %9, i32 noundef %10) #17
  ret void
}